target datalayout = "e-m:e-p270:32:32-p271:32:32-p272:64:64-i64:64-i128:128-f80:128-n8:16:32:64-S128"
target triple = "x86_64-pc-linux-gnu"

%struct.function_st = type { i32, ptr, ptr, ptr, ptr, ptr }

@functions = external global [0 x %struct.function_st], align 8
@prog_init.ret = internal global ptr null, align 8
@prog_init.prog_inited = internal global i32 0, align 4

; Function Attrs: inlinehint nounwind uwtable
define internal ptr @lh_FUNCTION_insert(ptr noundef %0, ptr noundef %1) #3 {
  %3 = alloca ptr, align 8
  %4 = alloca ptr, align 8
  store ptr %0, ptr %3, align 8, !tbaa !11
  store ptr %1, ptr %4, align 8, !tbaa !23
  %5 = load ptr, ptr %3, align 8, !tbaa !11
  %6 = load ptr, ptr %4, align 8, !tbaa !23
  %7 = call ptr @OPENSSL_LH_insert(ptr noundef %5, ptr noundef %6)
  ret ptr %7
}

; Function Attrs: inlinehint nounwind uwtable
define internal ptr @lh_FUNCTION_new(ptr noundef %0, ptr noundef %1) #3 {
  %3 = alloca ptr, align 8
  %4 = alloca ptr, align 8
  store ptr %0, ptr %3, align 8, !tbaa !39
  store ptr %1, ptr %4, align 8, !tbaa !39
  %5 = load ptr, ptr %3, align 8, !tbaa !39
  %6 = load ptr, ptr %4, align 8, !tbaa !39
  %7 = call ptr @OPENSSL_LH_new(ptr noundef %5, ptr noundef %6)
  %8 = call ptr @OPENSSL_LH_set_thunks(ptr noundef %7, ptr noundef @lh_FUNCTION_hfn_thunk, ptr noundef @lh_FUNCTION_cfn_thunk, ptr noundef @lh_FUNCTION_doall_thunk, ptr noundef @lh_FUNCTION_doall_arg_thunk)
  ret ptr %8
}

; Function Attrs: nounwind uwtable
define internal ptr @prog_init() #0 {
  %1 = alloca ptr, align 8
  %2 = alloca ptr, align 8
  %3 = alloca i64, align 8
  %4 = alloca i32, align 4
  call void @llvm.lifetime.start.p0(i64 8, ptr %2) #8
  call void @llvm.lifetime.start.p0(i64 8, ptr %3) #8
  %5 = load i32, ptr @prog_init.prog_inited, align 4, !tbaa !4
  %6 = icmp ne i32 %5, 0
  br i1 %6, label %7, label %9

7:                                                ; preds = %0
  %8 = load ptr, ptr @prog_init.ret, align 8, !tbaa !11
  store ptr %8, ptr %1, align 8
  store i32 1, ptr %4, align 4
  br label %41

9:                                                ; preds = %0
  store i32 1, ptr @prog_init.prog_inited, align 4, !tbaa !4
  store i64 0, ptr %3, align 8, !tbaa !25
  store ptr @functions, ptr %2, align 8, !tbaa !23
  br label %10

10:                                               ; preds = %16, %9
  %11 = load ptr, ptr %2, align 8, !tbaa !23
  %12 = getelementptr inbounds nuw %struct.function_st, ptr %11, i32 0, i32 1
  %13 = load ptr, ptr %12, align 8, !tbaa !20
  %14 = icmp ne ptr %13, null
  br i1 %14, label %15, label %21

15:                                               ; preds = %10
  br label %16

16:                                               ; preds = %15
  %17 = load ptr, ptr %2, align 8, !tbaa !23
  %18 = getelementptr inbounds nuw %struct.function_st, ptr %17, i32 1
  store ptr %18, ptr %2, align 8, !tbaa !23
  %19 = load i64, ptr %3, align 8, !tbaa !25
  %20 = add i64 %19, 1
  store i64 %20, ptr %3, align 8, !tbaa !25
  br label %10, !llvm.loop !27

21:                                               ; preds = %10
  %22 = load i64, ptr %3, align 8, !tbaa !25
  call void @qsort(ptr noundef @functions, i64 noundef %22, i64 noundef 48, ptr noundef @SortFnByName)
  %23 = call ptr @lh_FUNCTION_new(ptr noundef @function_hash, ptr noundef @function_cmp)
  store ptr %23, ptr @prog_init.ret, align 8, !tbaa !11
  %24 = icmp eq ptr %23, null
  br i1 %24, label %25, label %26

25:                                               ; preds = %21
  store ptr null, ptr %1, align 8
  store i32 1, ptr %4, align 4
  br label %41

26:                                               ; preds = %21
  store ptr @functions, ptr %2, align 8, !tbaa !23
  br label %27

27:                                               ; preds = %36, %26
  %28 = load ptr, ptr %2, align 8, !tbaa !23
  %29 = getelementptr inbounds nuw %struct.function_st, ptr %28, i32 0, i32 1
  %30 = load ptr, ptr %29, align 8, !tbaa !20
  %31 = icmp ne ptr %30, null
  br i1 %31, label %32, label %39

32:                                               ; preds = %27
  %33 = load ptr, ptr @prog_init.ret, align 8, !tbaa !11
  %34 = load ptr, ptr %2, align 8, !tbaa !23
  %35 = call ptr @lh_FUNCTION_insert(ptr noundef %33, ptr noundef %34)
  br label %36

36:                                               ; preds = %32
  %37 = load ptr, ptr %2, align 8, !tbaa !23
  %38 = getelementptr inbounds nuw %struct.function_st, ptr %37, i32 1
  store ptr %38, ptr %2, align 8, !tbaa !23
  br label %27, !llvm.loop !29

39:                                               ; preds = %27
  %40 = load ptr, ptr @prog_init.ret, align 8, !tbaa !11
  store ptr %40, ptr %1, align 8
  store i32 1, ptr %4, align 4
  br label %41

41:                                               ; preds = %39, %25, %7
  call void @llvm.lifetime.end.p0(i64 8, ptr %3) #8
  call void @llvm.lifetime.end.p0(i64 8, ptr %2) #8
  %42 = load ptr, ptr %1, align 8
  ret ptr %42
}