; Function Attrs: nounwind uwtable
define internal fastcc ptr @prog_init() unnamed_addr #3 {
  %.b = load i1, ptr @prog_init.prog_inited, align 4
  br i1 %.b, label %1, label %3

1:                                                ; preds = %0
  %2 = load ptr, ptr @prog_init.ret, align 8, !tbaa !15
  br label %._crit_edge16

3:                                                ; preds = %0
  store i1 true, ptr @prog_init.prog_inited, align 4
  %4 = load ptr, ptr getelementptr inbounds nuw (i8, ptr @functions, i64 8), align 8, !tbaa !11
  %.not10 = icmp eq ptr %4, null
  br i1 %.not10, label %._crit_edge, label %.lr.ph

.lr.ph:                                           ; preds = %3, %.lr.ph
  %.012 = phi i64 [ %6, %.lr.ph ], [ 0, %3 ]
  %.0711 = phi ptr [ %5, %.lr.ph ], [ @functions, %3 ]
  %5 = getelementptr inbounds nuw i8, ptr %.0711, i64 48
  %6 = add i64 %.012, 1
  %7 = getelementptr inbounds nuw i8, ptr %.0711, i64 56
  %8 = load ptr, ptr %7, align 8, !tbaa !11
  %.not = icmp eq ptr %8, null
  br i1 %.not, label %._crit_edge, label %.lr.ph, !llvm.loop !17

._crit_edge:                                      ; preds = %.lr.ph, %3
  %.0.lcssa = phi i64 [ 0, %3 ], [ %6, %.lr.ph ]
  tail call void @qsort(ptr noundef nonnull @functions, i64 noundef %.0.lcssa, i64 noundef 48, ptr noundef nonnull @SortFnByName) #12
  %9 = tail call ptr @OPENSSL_LH_new(ptr noundef nonnull @function_hash, ptr noundef nonnull @function_cmp) #12
  %10 = tail call ptr @OPENSSL_LH_set_thunks(ptr noundef %9, ptr noundef nonnull @lh_FUNCTION_hfn_thunk, ptr noundef nonnull @lh_FUNCTION_cfn_thunk, ptr noundef nonnull @lh_FUNCTION_doall_thunk, ptr noundef nonnull @lh_FUNCTION_doall_arg_thunk) #12
  store ptr %10, ptr @prog_init.ret, align 8, !tbaa !15
  %11 = icmp eq ptr %10, null
  br i1 %11, label %._crit_edge16, label %.preheader

.preheader:                                       ; preds = %._crit_edge
  %12 = load ptr, ptr getelementptr inbounds nuw (i8, ptr @functions, i64 8), align 8, !tbaa !11
  %.not913 = icmp eq ptr %12, null
  br i1 %.not913, label %._crit_edge16, label %.lr.ph15

.lr.ph15:                                         ; preds = %.preheader, %.lr.ph15
  %.114 = phi ptr [ %15, %.lr.ph15 ], [ @functions, %.preheader ]
  %13 = load ptr, ptr @prog_init.ret, align 8, !tbaa !15
  %14 = tail call ptr @OPENSSL_LH_insert(ptr noundef %13, ptr noundef nonnull %.114) #12
  %15 = getelementptr inbounds nuw i8, ptr %.114, i64 48
  %16 = getelementptr inbounds nuw i8, ptr %.114, i64 56
  %17 = load ptr, ptr %16, align 8, !tbaa !11
  %.not9 = icmp eq ptr %17, null
  br i1 %.not9, label %._crit_edge16.loopexit, label %.lr.ph15, !llvm.loop !19

._crit_edge16.loopexit:                           ; preds = %.lr.ph15
  %.pre = load ptr, ptr @prog_init.ret, align 8, !tbaa !15
  br label %._crit_edge16

._crit_edge16:                                    ; preds = %.preheader, %._crit_edge16.loopexit, %._crit_edge, %1
  %.08 = phi ptr [ %2, %1 ], [ null, %._crit_edge ], [ %.pre, %._crit_edge16.loopexit ], [ %10, %.preheader ]
  ret ptr %.08
}